Certificate:
    Data:
        Version: 1 (0x0)
        Serial Number: 1 (0x1)
    Signature Algorithm: sha1WithRSAEncryption
        Issuer: C=FR, ST=France, L=Grenoble, O=Usurpateur, OU=Adobe, CN=Alkanor/emailAddress=alka@gmail.com
        Validity
            Not Before: May 11 13:36:09 2016 GMT
            Not After : May 11 13:36:09 2017 GMT
        Subject: C=DE, ST=Deutschland, L=Berlin, O=Alka company, OU=Erable, CN=Alkanoor/emailAddress=bonjour@gmail.com
        Subject Public Key Info:
            Public Key Algorithm: rsaEncryption
                Public-Key: (1024 bit)
                Modulus:
                    00:c5:e9:07:e3:d4:6d:f3:29:ef:08:ad:85:cf:ef:
                    9e:64:33:f9:35:ac:77:7e:de:19:62:de:58:ee:af:
                    82:38:d6:1a:2f:e2:20:3d:92:21:38:4f:77:b4:0b:
                    52:3a:54:2e:03:a7:13:80:c9:cf:79:a8:28:c3:45:
                    5a:c6:ab:70:a6:2b:d6:d4:4e:ea:ad:9b:86:7d:ad:
                    ff:1c:97:08:15:92:0d:91:32:de:fd:b6:69:4d:c2:
                    39:f9:2f:ba:23:3e:11:cb:e6:1f:c5:b8:3c:d6:4e:
                    8e:33:1f:a6:ab:c6:3b:a2:5c:4d:91:50:68:d7:fa:
                    1b:58:28:68:a8:e5:2c:66:23
                Exponent: 65537 (0x10001)
    Signature Algorithm: sha1WithRSAEncryption
         ae:89:cd:3b:c1:13:09:25:f7:0a:03:22:53:de:e7:ee:fa:09:
         df:77:0e:71:a8:01:cb:e0:66:e3:d6:91:b9:55:0c:18:ea:30:
         6f:c0:a1:3b:e7:b1:79:3d:75:99:5c:7c:21:03:28:bf:39:d4:
         42:11:19:27:ba:a8:f8:a8:95:b6:9d:04:78:58:13:9b:a0:b5:
         a9:ed:fd:34:fa:b2:de:0e:40:0c:4b:d4:52:a8:42:c9:2a:4e:
         f6:36:70:22:a2:1b:d6:a5:47:34:a3:65:96:75:8f:cc:dc:f8:
         2b:46:11:ba:0a:9c:17:be:07:e0:c5:99:24:25:00:78:e5:28:
         ed:3d:7a:2f:0b:d0:49:21:86:09:f0:bf:13:93:ed:42:fe:ed:
         4c:b2:49:1e:71:60:d6:6f:6a:8f:3f:f1:1f:a4:43:b0:94:55:
         16:1e:82:44:bc:4e:bd:d2:a3:d0:29:f1:61:c3:48:03:68:eb:
         74:db:3c:a9:fc:4b:47:9c:ad:3c:0d:20:0b:16:49:1b:1b:c2:
         14:78:62:01:a0:d3:61:84:82:9b:b3:73:e4:d7:ae:99:e3:72:
         c4:b0:3f:d6:1c:9e:2c:b4:47:29:c2:fc:dd:41:01:cc:2a:2f:
         fe:c3:bf:e0:c5:7f:ee:a3:e0:5f:f8:61:cc:a1:40:8c:be:04:
         ce:3f:02:4b
-----BEGIN CERTIFICATE-----
MIIDCjCCAfICAQEwDQYJKoZIhvcNAQEFBQAwgYcxCzAJBgNVBAYTAkZSMQ8wDQYD
VQQIDAZGcmFuY2UxETAPBgNVBAcMCEdyZW5vYmxlMRMwEQYDVQQKDApVc3VycGF0
ZXVyMQ4wDAYDVQQLDAVBZG9iZTEQMA4GA1UEAwwHQWxrYW5vcjEdMBsGCSqGSIb3
DQEJARYOYWxrYUBnbWFpbC5jb20wHhcNMTYwNTExMTMzNjA5WhcNMTcwNTExMTMz
NjA5WjCBkTELMAkGA1UEBhMCREUxFDASBgNVBAgMC0RldXRzY2hsYW5kMQ8wDQYD
VQQHDAZCZXJsaW4xFTATBgNVBAoMDEFsa2EgY29tcGFueTEPMA0GA1UECwwGRXJh
YmxlMREwDwYDVQQDDAhBbGthbm9vcjEgMB4GCSqGSIb3DQEJARYRYm9uam91ckBn
bWFpbC5jb20wgZ8wDQYJKoZIhvcNAQEBBQADgY0AMIGJAoGBAMXpB+PUbfMp7wit
hc/vnmQz+TWsd37eGWLeWO6vgjjWGi/iID2SIThPd7QLUjpULgOnE4DJz3moKMNF
WsarcKYr1tRO6q2bhn2t/xyXCBWSDZEy3v22aU3COfkvuiM+EcvmH8W4PNZOjjMf
pqvGO6JcTZFQaNf6G1goaKjlLGYjAgMBAAEwDQYJKoZIhvcNAQEFBQADggEBAK6J
zTvBEwkl9woDIlPe5+76Cd93DnGoAcvgZuPWkblVDBjqMG/AoTvnsXk9dZlcfCED
KL851EIRGSe6qPiolbadBHhYE5ugtant/TT6st4OQAxL1FKoQskqTvY2cCKiG9al
RzSjZZZ1j8zc+CtGEboKnBe+B+DFmSQlAHjlKO09ei8L0EkhhgnwvxOT7UL+7Uyy
SR5xYNZvao8/8R+kQ7CUVRYegkS8Tr3So9Ap8WHDSANo63TbPKn8S0ecrTwNIAsW
SRsbwhR4YgGg02GEgpuzc+TXrpnjcsSwP9Ycniy0RynC/N1BAcwqL/7Dv+DFf+6j
4F/4YcyhQIy+BM4/Aks=
-----END CERTIFICATE-----
